target datalayout = "e-m:e-p270:32:32-p271:32:32-p272:64:64-i64:64-i128:128-f80:128-n8:16:32:64-S128"
target triple = "x86_64-pc-linux-gnu"

%struct.ImVec2 = type { float, float }
%struct.ImRect = type { %struct.ImVec2, %struct.ImVec2 }
%struct.ImGuiTextBuffer = type { %struct.ImVector.34 }
%struct.ImVector.34 = type { i32, i32, ptr }
%struct.ImGuiTabBar = type { ptr, %struct.ImVector.43, i32, i32, i32, i32, i32, i32, i32, %struct.ImRect, float, float, float, float, float, float, float, float, float, float, float, float, i32, i16, i8, i8, i8, i8, i16, i16, float, %struct.ImVec2, %struct.ImVec2, %struct.ImGuiTextBuffer }
%struct.ImVector.43 = type { i32, i32, ptr }

; Function Attrs: noinline noreturn nounwind uwtable
define linkonce_odr hidden void @__clang_call_terminate(ptr noundef %0) #13 comdat {
  %2 = call ptr @__cxa_begin_catch(ptr %0) #17
  call void @_ZSt9terminatev() #19
  unreachable
}

; Function Attrs: inlinehint mustprogress nounwind uwtable
define linkonce_odr dso_local void @_ZN8ImVectorIcEC2Ev(ptr noundef nonnull align 8 dereferenceable(16) %0) unnamed_addr #2 comdat align 2 {
  %2 = alloca ptr, align 8
  store ptr %0, ptr %2, align 8, !tbaa !505
  %3 = load ptr, ptr %2, align 8
  %4 = getelementptr inbounds nuw %struct.ImVector.34, ptr %3, i32 0, i32 1
  store i32 0, ptr %4, align 4, !tbaa !507
  %5 = getelementptr inbounds nuw %struct.ImVector.34, ptr %3, i32 0, i32 0
  store i32 0, ptr %5, align 8, !tbaa !508
  %6 = getelementptr inbounds nuw %struct.ImVector.34, ptr %3, i32 0, i32 2
  store ptr null, ptr %6, align 8, !tbaa !509
  ret void
}

; Function Attrs: mustprogress nounwind uwtable
define linkonce_odr dso_local void @_ZN6ImVec2C2Eff(ptr noundef nonnull align 4 dereferenceable(8) %0, float noundef %1, float noundef %2) unnamed_addr #4 comdat align 2 {
  %4 = alloca ptr, align 8
  %5 = alloca float, align 4
  %6 = alloca float, align 4
  store ptr %0, ptr %4, align 8, !tbaa !174
  store float %1, ptr %5, align 4, !tbaa !66
  store float %2, ptr %6, align 4, !tbaa !66
  %7 = load ptr, ptr %4, align 8
  %8 = getelementptr inbounds nuw %struct.ImVec2, ptr %7, i32 0, i32 0
  %9 = load float, ptr %5, align 4, !tbaa !66
  store float %9, ptr %8, align 4, !tbaa !165
  %10 = getelementptr inbounds nuw %struct.ImVec2, ptr %7, i32 0, i32 1
  %11 = load float, ptr %6, align 4, !tbaa !66
  store float %11, ptr %10, align 4, !tbaa !164
  ret void
}

; Function Attrs: inlinehint mustprogress nounwind uwtable
define linkonce_odr dso_local void @_ZN8ImVectorI12ImGuiTabItemED2Ev(ptr noundef nonnull align 8 dereferenceable(16) %0) unnamed_addr #2 comdat align 2 personality ptr @__gxx_personality_v0 {
  %2 = alloca ptr, align 8
  store ptr %0, ptr %2, align 8, !tbaa !814
  %3 = load ptr, ptr %2, align 8
  %4 = getelementptr inbounds nuw %struct.ImVector.43, ptr %3, i32 0, i32 2
  %5 = load ptr, ptr %4, align 8, !tbaa !818
  %6 = icmp ne ptr %5, null
  br i1 %6, label %7, label %11

7:                                                ; preds = %1
  %8 = getelementptr inbounds nuw %struct.ImVector.43, ptr %3, i32 0, i32 2
  %9 = load ptr, ptr %8, align 8, !tbaa !818
  invoke void @_ZN5ImGui7MemFreeEPv(ptr noundef %9)
          to label %10 unwind label %12

10:                                               ; preds = %7
  br label %11

11:                                               ; preds = %10, %1
  ret void

12:                                               ; preds = %7
  %13 = landingpad { ptr, i32 }
          catch ptr null
  %14 = extractvalue { ptr, i32 } %13, 0
  call void @__clang_call_terminate(ptr %14) #19
  unreachable
}

; Function Attrs: mustprogress uwtable
define linkonce_odr dso_local void @_ZN15ImGuiTextBufferC2Ev(ptr noundef nonnull align 8 dereferenceable(16) %0) unnamed_addr #8 comdat align 2 {
  %2 = alloca ptr, align 8
  store ptr %0, ptr %2, align 8, !tbaa !819
  %3 = load ptr, ptr %2, align 8
  %4 = getelementptr inbounds nuw %struct.ImGuiTextBuffer, ptr %3, i32 0, i32 0
  call void @_ZN8ImVectorIcEC2Ev(ptr noundef nonnull align 8 dereferenceable(16) %4)
  ret void
}

; Function Attrs: mustprogress nounwind uwtable
define linkonce_odr dso_local void @_ZN6ImVec2C2Ev(ptr noundef nonnull align 4 dereferenceable(8) %0) unnamed_addr #4 comdat align 2 {
  %2 = alloca ptr, align 8
  store ptr %0, ptr %2, align 8, !tbaa !174
  %3 = load ptr, ptr %2, align 8
  %4 = getelementptr inbounds nuw %struct.ImVec2, ptr %3, i32 0, i32 0
  store float 0.000000e+00, ptr %4, align 4, !tbaa !165
  %5 = getelementptr inbounds nuw %struct.ImVec2, ptr %3, i32 0, i32 1
  store float 0.000000e+00, ptr %5, align 4, !tbaa !164
  ret void
}

; Function Attrs: mustprogress uwtable
define linkonce_odr dso_local void @_ZN6ImRectC2Ev(ptr noundef nonnull align 4 dereferenceable(16) %0) unnamed_addr #8 comdat align 2 {
  %2 = alloca ptr, align 8
  store ptr %0, ptr %2, align 8, !tbaa !175
  %3 = load ptr, ptr %2, align 8
  %4 = getelementptr inbounds nuw %struct.ImRect, ptr %3, i32 0, i32 0
  call void @_ZN6ImVec2C2Eff(ptr noundef nonnull align 4 dereferenceable(8) %4, float noundef 0.000000e+00, float noundef 0.000000e+00)
  %5 = getelementptr inbounds nuw %struct.ImRect, ptr %3, i32 0, i32 1
  call void @_ZN6ImVec2C2Eff(ptr noundef nonnull align 4 dereferenceable(8) %5, float noundef 0.000000e+00, float noundef 0.000000e+00)
  ret void
}

; Function Attrs: inlinehint mustprogress nounwind uwtable
define linkonce_odr dso_local void @_ZN8ImVectorI12ImGuiTabItemEC2Ev(ptr noundef nonnull align 8 dereferenceable(16) %0) unnamed_addr #2 comdat align 2 {
  %2 = alloca ptr, align 8
  store ptr %0, ptr %2, align 8, !tbaa !814
  %3 = load ptr, ptr %2, align 8
  %4 = getelementptr inbounds nuw %struct.ImVector.43, ptr %3, i32 0, i32 1
  store i32 0, ptr %4, align 4, !tbaa !816
  %5 = getelementptr inbounds nuw %struct.ImVector.43, ptr %3, i32 0, i32 0
  store i32 0, ptr %5, align 8, !tbaa !817
  %6 = getelementptr inbounds nuw %struct.ImVector.43, ptr %3, i32 0, i32 2
  store ptr null, ptr %6, align 8, !tbaa !818
  ret void
}

; Function Attrs: mustprogress uwtable
define dso_local void @_ZN11ImGuiTabBarC2Ev(ptr noundef nonnull align 8 dereferenceable(168) %0) unnamed_addr #8 align 2 personality ptr @__gxx_personality_v0 {
  %2 = alloca ptr, align 8
  %3 = alloca ptr, align 8
  %4 = alloca i32, align 4
  store ptr %0, ptr %2, align 8, !tbaa !807
  %5 = load ptr, ptr %2, align 8
  %6 = getelementptr inbounds nuw %struct.ImGuiTabBar, ptr %5, i32 0, i32 1
  call void @_ZN8ImVectorI12ImGuiTabItemEC2Ev(ptr noundef nonnull align 8 dereferenceable(16) %6)
  %7 = getelementptr inbounds nuw %struct.ImGuiTabBar, ptr %5, i32 0, i32 9
  invoke void @_ZN6ImRectC2Ev(ptr noundef nonnull align 4 dereferenceable(16) %7)
          to label %8 unwind label %18

8:                                                ; preds = %1
  %9 = getelementptr inbounds nuw %struct.ImGuiTabBar, ptr %5, i32 0, i32 31
  invoke void @_ZN6ImVec2C2Ev(ptr noundef nonnull align 4 dereferenceable(8) %9)
          to label %10 unwind label %18

10:                                               ; preds = %8
  %11 = getelementptr inbounds nuw %struct.ImGuiTabBar, ptr %5, i32 0, i32 32
  invoke void @_ZN6ImVec2C2Ev(ptr noundef nonnull align 4 dereferenceable(8) %11)
          to label %12 unwind label %18

12:                                               ; preds = %10
  %13 = getelementptr inbounds nuw %struct.ImGuiTabBar, ptr %5, i32 0, i32 33
  invoke void @_ZN15ImGuiTextBufferC2Ev(ptr noundef nonnull align 8 dereferenceable(16) %13)
          to label %14 unwind label %18

14:                                               ; preds = %12
  call void @llvm.memset.p0.i64(ptr align 8 %5, i8 0, i64 168, i1 false)
  %15 = getelementptr inbounds nuw %struct.ImGuiTabBar, ptr %5, i32 0, i32 8
  store i32 -1, ptr %15, align 8, !tbaa !808
  %16 = getelementptr inbounds nuw %struct.ImGuiTabBar, ptr %5, i32 0, i32 7
  store i32 -1, ptr %16, align 4, !tbaa !812
  %17 = getelementptr inbounds nuw %struct.ImGuiTabBar, ptr %5, i32 0, i32 29
  store i16 -1, ptr %17, align 8, !tbaa !813
  ret void

18:                                               ; preds = %12, %10, %8, %1
  %19 = landingpad { ptr, i32 }
          cleanup
  %20 = extractvalue { ptr, i32 } %19, 0
  store ptr %20, ptr %3, align 8
  %21 = extractvalue { ptr, i32 } %19, 1
  store i32 %21, ptr %4, align 4
  call void @_ZN8ImVectorI12ImGuiTabItemED2Ev(ptr noundef nonnull align 8 dereferenceable(16) %6) #17
  br label %22

22:                                               ; preds = %18
  %23 = load ptr, ptr %3, align 8
  %24 = load i32, ptr %4, align 4
  %25 = insertvalue { ptr, i32 } poison, ptr %23, 0
  %26 = insertvalue { ptr, i32 } %25, i32 %24, 1
  resume { ptr, i32 } %26
}