; Function Attrs: mustprogress nofree norecurse nosync nounwind willreturn memory(argmem: write) uwtable
define dso_local void @_ZN11ImGuiTabBarC2Ev(ptr noundef nonnull writeonly align 8 captures(none) dereferenceable(168) initializes((0, 168)) %0) unnamed_addr #25 align 2 personality ptr @__gxx_personality_v0 {
  %2 = getelementptr inbounds nuw i8, ptr %0, i64 48
  tail call void @llvm.memset.p0.i64(ptr noundef nonnull align 8 dereferenceable(168) %0, i8 0, i64 168, i1 false)
  store i32 -1, ptr %2, align 8, !tbaa !710
  %3 = getelementptr inbounds nuw i8, ptr %0, i64 44
  store i32 -1, ptr %3, align 4, !tbaa !714
  %4 = getelementptr inbounds nuw i8, ptr %0, i64 128
  store i16 -1, ptr %4, align 8, !tbaa !715
  ret void
}